
Enable_Ext_Interrupt_Stm32F103XX_lab2.axf:     file format elf32-littlearm


Disassembly of section .isr_vector:

08000000 <g_pfnVectors>:
 8000000:	20002800 	andcs	r2, r0, r0, lsl #16
 8000004:	080002ad 	stmdaeq	r0, {r0, r2, r3, r5, r7, r9}
 8000008:	080002fd 	stmdaeq	r0, {r0, r2, r3, r4, r5, r6, r7, r9}
 800000c:	080002fd 	stmdaeq	r0, {r0, r2, r3, r4, r5, r6, r7, r9}
 8000010:	080002fd 	stmdaeq	r0, {r0, r2, r3, r4, r5, r6, r7, r9}
 8000014:	080002fd 	stmdaeq	r0, {r0, r2, r3, r4, r5, r6, r7, r9}
 8000018:	080002fd 	stmdaeq	r0, {r0, r2, r3, r4, r5, r6, r7, r9}
	...
 800002c:	080002fd 	stmdaeq	r0, {r0, r2, r3, r4, r5, r6, r7, r9}
 8000030:	080002fd 	stmdaeq	r0, {r0, r2, r3, r4, r5, r6, r7, r9}
 8000034:	00000000 	andeq	r0, r0, r0
 8000038:	080002fd 	stmdaeq	r0, {r0, r2, r3, r4, r5, r6, r7, r9}
 800003c:	080002fd 	stmdaeq	r0, {r0, r2, r3, r4, r5, r6, r7, r9}
 8000040:	080002fd 	stmdaeq	r0, {r0, r2, r3, r4, r5, r6, r7, r9}
 8000044:	080002fd 	stmdaeq	r0, {r0, r2, r3, r4, r5, r6, r7, r9}
 8000048:	080002fd 	stmdaeq	r0, {r0, r2, r3, r4, r5, r6, r7, r9}
 800004c:	080002fd 	stmdaeq	r0, {r0, r2, r3, r4, r5, r6, r7, r9}
 8000050:	080002fd 	stmdaeq	r0, {r0, r2, r3, r4, r5, r6, r7, r9}
 8000054:	080002fd 	stmdaeq	r0, {r0, r2, r3, r4, r5, r6, r7, r9}
 8000058:	08000281 	stmdaeq	r0, {r0, r7, r9}
 800005c:	080002fd 	stmdaeq	r0, {r0, r2, r3, r4, r5, r6, r7, r9}
 8000060:	080002fd 	stmdaeq	r0, {r0, r2, r3, r4, r5, r6, r7, r9}
 8000064:	080002fd 	stmdaeq	r0, {r0, r2, r3, r4, r5, r6, r7, r9}
 8000068:	080002fd 	stmdaeq	r0, {r0, r2, r3, r4, r5, r6, r7, r9}
 800006c:	080002fd 	stmdaeq	r0, {r0, r2, r3, r4, r5, r6, r7, r9}
 8000070:	080002fd 	stmdaeq	r0, {r0, r2, r3, r4, r5, r6, r7, r9}
 8000074:	080002fd 	stmdaeq	r0, {r0, r2, r3, r4, r5, r6, r7, r9}
 8000078:	080002fd 	stmdaeq	r0, {r0, r2, r3, r4, r5, r6, r7, r9}
 800007c:	080002fd 	stmdaeq	r0, {r0, r2, r3, r4, r5, r6, r7, r9}
 8000080:	080002fd 	stmdaeq	r0, {r0, r2, r3, r4, r5, r6, r7, r9}
 8000084:	080002fd 	stmdaeq	r0, {r0, r2, r3, r4, r5, r6, r7, r9}
 8000088:	080002fd 	stmdaeq	r0, {r0, r2, r3, r4, r5, r6, r7, r9}
 800008c:	080002fd 	stmdaeq	r0, {r0, r2, r3, r4, r5, r6, r7, r9}
 8000090:	080002fd 	stmdaeq	r0, {r0, r2, r3, r4, r5, r6, r7, r9}
 8000094:	080002fd 	stmdaeq	r0, {r0, r2, r3, r4, r5, r6, r7, r9}
 8000098:	080002fd 	stmdaeq	r0, {r0, r2, r3, r4, r5, r6, r7, r9}
 800009c:	080002fd 	stmdaeq	r0, {r0, r2, r3, r4, r5, r6, r7, r9}
 80000a0:	080002fd 	stmdaeq	r0, {r0, r2, r3, r4, r5, r6, r7, r9}
 80000a4:	080002fd 	stmdaeq	r0, {r0, r2, r3, r4, r5, r6, r7, r9}
 80000a8:	080002fd 	stmdaeq	r0, {r0, r2, r3, r4, r5, r6, r7, r9}
 80000ac:	080002fd 	stmdaeq	r0, {r0, r2, r3, r4, r5, r6, r7, r9}
 80000b0:	080002fd 	stmdaeq	r0, {r0, r2, r3, r4, r5, r6, r7, r9}
 80000b4:	080002fd 	stmdaeq	r0, {r0, r2, r3, r4, r5, r6, r7, r9}
 80000b8:	080002fd 	stmdaeq	r0, {r0, r2, r3, r4, r5, r6, r7, r9}
 80000bc:	080002fd 	stmdaeq	r0, {r0, r2, r3, r4, r5, r6, r7, r9}
 80000c0:	080002fd 	stmdaeq	r0, {r0, r2, r3, r4, r5, r6, r7, r9}
 80000c4:	080002fd 	stmdaeq	r0, {r0, r2, r3, r4, r5, r6, r7, r9}
 80000c8:	080002fd 	stmdaeq	r0, {r0, r2, r3, r4, r5, r6, r7, r9}
 80000cc:	080002fd 	stmdaeq	r0, {r0, r2, r3, r4, r5, r6, r7, r9}
 80000d0:	080002fd 	stmdaeq	r0, {r0, r2, r3, r4, r5, r6, r7, r9}
 80000d4:	080002fd 	stmdaeq	r0, {r0, r2, r3, r4, r5, r6, r7, r9}
 80000d8:	080002fd 	stmdaeq	r0, {r0, r2, r3, r4, r5, r6, r7, r9}
 80000dc:	080002fd 	stmdaeq	r0, {r0, r2, r3, r4, r5, r6, r7, r9}
 80000e0:	080002fd 	stmdaeq	r0, {r0, r2, r3, r4, r5, r6, r7, r9}
 80000e4:	080002fd 	stmdaeq	r0, {r0, r2, r3, r4, r5, r6, r7, r9}
 80000e8:	00000000 	andeq	r0, r0, r0
 80000ec:	080002fd 	stmdaeq	r0, {r0, r2, r3, r4, r5, r6, r7, r9}
 80000f0:	080002fd 	stmdaeq	r0, {r0, r2, r3, r4, r5, r6, r7, r9}
 80000f4:	080002fd 	stmdaeq	r0, {r0, r2, r3, r4, r5, r6, r7, r9}
 80000f8:	080002fd 	stmdaeq	r0, {r0, r2, r3, r4, r5, r6, r7, r9}
 80000fc:	080002fd 	stmdaeq	r0, {r0, r2, r3, r4, r5, r6, r7, r9}
 8000100:	080002fd 	stmdaeq	r0, {r0, r2, r3, r4, r5, r6, r7, r9}
 8000104:	080002fd 	stmdaeq	r0, {r0, r2, r3, r4, r5, r6, r7, r9}
 8000108:	080002fd 	stmdaeq	r0, {r0, r2, r3, r4, r5, r6, r7, r9}
 800010c:	080002fd 	stmdaeq	r0, {r0, r2, r3, r4, r5, r6, r7, r9}
 8000110:	080002fd 	stmdaeq	r0, {r0, r2, r3, r4, r5, r6, r7, r9}
 8000114:	080002fd 	stmdaeq	r0, {r0, r2, r3, r4, r5, r6, r7, r9}
 8000118:	080002fd 	stmdaeq	r0, {r0, r2, r3, r4, r5, r6, r7, r9}
 800011c:	080002fd 	stmdaeq	r0, {r0, r2, r3, r4, r5, r6, r7, r9}
 8000120:	080002fd 	stmdaeq	r0, {r0, r2, r3, r4, r5, r6, r7, r9}
 8000124:	080002fd 	stmdaeq	r0, {r0, r2, r3, r4, r5, r6, r7, r9}
 8000128:	080002fd 	stmdaeq	r0, {r0, r2, r3, r4, r5, r6, r7, r9}
 800012c:	080002fd 	stmdaeq	r0, {r0, r2, r3, r4, r5, r6, r7, r9}

Disassembly of section .text:

08000130 <__do_global_dtors_aux>:
 8000130:	b510      	push	{r4, lr}
 8000132:	4c05      	ldr	r4, [pc, #20]	; (8000148 <__do_global_dtors_aux+0x18>)
 8000134:	7823      	ldrb	r3, [r4, #0]
 8000136:	b933      	cbnz	r3, 8000146 <__do_global_dtors_aux+0x16>
 8000138:	4b04      	ldr	r3, [pc, #16]	; (800014c <__do_global_dtors_aux+0x1c>)
 800013a:	b113      	cbz	r3, 8000142 <__do_global_dtors_aux+0x12>
 800013c:	4804      	ldr	r0, [pc, #16]	; (8000150 <__do_global_dtors_aux+0x20>)
 800013e:	f3af 8000 	nop.w
 8000142:	2301      	movs	r3, #1
 8000144:	7023      	strb	r3, [r4, #0]
 8000146:	bd10      	pop	{r4, pc}
 8000148:	20000000 	andcs	r0, r0, r0
 800014c:	00000000 	andeq	r0, r0, r0
 8000150:	08000348 	stmdaeq	r0, {r3, r6, r8, r9}

08000154 <frame_dummy>:
 8000154:	b508      	push	{r3, lr}
 8000156:	4b03      	ldr	r3, [pc, #12]	; (8000164 <frame_dummy+0x10>)
 8000158:	b11b      	cbz	r3, 8000162 <frame_dummy+0xe>
 800015a:	4903      	ldr	r1, [pc, #12]	; (8000168 <frame_dummy+0x14>)
 800015c:	4803      	ldr	r0, [pc, #12]	; (800016c <frame_dummy+0x18>)
 800015e:	f3af 8000 	nop.w
 8000162:	bd08      	pop	{r3, pc}
 8000164:	00000000 	andeq	r0, r0, r0
 8000168:	20000004 	andcs	r0, r0, r4
 800016c:	08000348 	stmdaeq	r0, {r3, r6, r8, r9}

08000170 <Clock_init>:
 8000170:	b480      	push	{r7}
 8000172:	af00      	add	r7, sp, #0
 8000174:	4b07      	ldr	r3, [pc, #28]	; (8000194 <Clock_init+0x24>)
 8000176:	681b      	ldr	r3, [r3, #0]
 8000178:	4a06      	ldr	r2, [pc, #24]	; (8000194 <Clock_init+0x24>)
 800017a:	f043 0304 	orr.w	r3, r3, #4
 800017e:	6013      	str	r3, [r2, #0]
 8000180:	4b04      	ldr	r3, [pc, #16]	; (8000194 <Clock_init+0x24>)
 8000182:	681b      	ldr	r3, [r3, #0]
 8000184:	4a03      	ldr	r2, [pc, #12]	; (8000194 <Clock_init+0x24>)
 8000186:	f043 0301 	orr.w	r3, r3, #1
 800018a:	6013      	str	r3, [r2, #0]
 800018c:	bf00      	nop
 800018e:	46bd      	mov	sp, r7
 8000190:	bc80      	pop	{r7}
 8000192:	4770      	bx	lr
 8000194:	40021018 	andmi	r1, r2, r8, lsl r0

08000198 <GPIO_init>:
 8000198:	b480      	push	{r7}
 800019a:	af00      	add	r7, sp, #0
 800019c:	4b0f      	ldr	r3, [pc, #60]	; (80001dc <GPIO_init+0x44>)
 800019e:	681b      	ldr	r3, [r3, #0]
 80001a0:	4a0e      	ldr	r2, [pc, #56]	; (80001dc <GPIO_init+0x44>)
 80001a2:	f423 0370 	bic.w	r3, r3, #15728640	; 0xf00000
 80001a6:	6013      	str	r3, [r2, #0]
 80001a8:	4b0c      	ldr	r3, [pc, #48]	; (80001dc <GPIO_init+0x44>)
 80001aa:	681b      	ldr	r3, [r3, #0]
 80001ac:	4a0b      	ldr	r2, [pc, #44]	; (80001dc <GPIO_init+0x44>)
 80001ae:	f443 1300 	orr.w	r3, r3, #2097152	; 0x200000
 80001b2:	6013      	str	r3, [r2, #0]
 80001b4:	4b0a      	ldr	r3, [pc, #40]	; (80001e0 <GPIO_init+0x48>)
 80001b6:	681b      	ldr	r3, [r3, #0]
 80001b8:	4a09      	ldr	r2, [pc, #36]	; (80001e0 <GPIO_init+0x48>)
 80001ba:	f023 030f 	bic.w	r3, r3, #15
 80001be:	6013      	str	r3, [r2, #0]
 80001c0:	4b07      	ldr	r3, [pc, #28]	; (80001e0 <GPIO_init+0x48>)
 80001c2:	681b      	ldr	r3, [r3, #0]
 80001c4:	4a06      	ldr	r2, [pc, #24]	; (80001e0 <GPIO_init+0x48>)
 80001c6:	f043 0308 	orr.w	r3, r3, #8
 80001ca:	6013      	str	r3, [r2, #0]
 80001cc:	4b05      	ldr	r3, [pc, #20]	; (80001e4 <GPIO_init+0x4c>)
 80001ce:	2200      	movs	r2, #0
 80001d0:	601a      	str	r2, [r3, #0]
 80001d2:	bf00      	nop
 80001d4:	46bd      	mov	sp, r7
 80001d6:	bc80      	pop	{r7}
 80001d8:	4770      	bx	lr
 80001da:	bf00      	nop
 80001dc:	40010804 	andmi	r0, r1, r4, lsl #16
 80001e0:	40010800 	andmi	r0, r1, r0, lsl #16
 80001e4:	04001008 	streq	r1, [r0], #-8

080001e8 <EXTI_init>:
 80001e8:	b480      	push	{r7}
 80001ea:	af00      	add	r7, sp, #0
 80001ec:	4b0a      	ldr	r3, [pc, #40]	; (8000218 <EXTI_init+0x30>)
 80001ee:	681b      	ldr	r3, [r3, #0]
 80001f0:	4a09      	ldr	r2, [pc, #36]	; (8000218 <EXTI_init+0x30>)
 80001f2:	f043 0301 	orr.w	r3, r3, #1
 80001f6:	6013      	str	r3, [r2, #0]
 80001f8:	4b08      	ldr	r3, [pc, #32]	; (800021c <EXTI_init+0x34>)
 80001fa:	681b      	ldr	r3, [r3, #0]
 80001fc:	4a07      	ldr	r2, [pc, #28]	; (800021c <EXTI_init+0x34>)
 80001fe:	f043 0301 	orr.w	r3, r3, #1
 8000202:	6013      	str	r3, [r2, #0]
 8000204:	4b06      	ldr	r3, [pc, #24]	; (8000220 <EXTI_init+0x38>)
 8000206:	681b      	ldr	r3, [r3, #0]
 8000208:	4a05      	ldr	r2, [pc, #20]	; (8000220 <EXTI_init+0x38>)
 800020a:	f043 0340 	orr.w	r3, r3, #64	; 0x40
 800020e:	6013      	str	r3, [r2, #0]
 8000210:	bf00      	nop
 8000212:	46bd      	mov	sp, r7
 8000214:	bc80      	pop	{r7}
 8000216:	4770      	bx	lr
 8000218:	40010400 	andmi	r0, r1, r0, lsl #8
 800021c:	40010408 	andmi	r0, r1, r8, lsl #8
 8000220:	e000e100 	and	lr, r0, r0, lsl #2

08000224 <SWITCH_USER_LEVEL>:
 8000224:	b480      	push	{r7}
 8000226:	b083      	sub	sp, #12
 8000228:	af00      	add	r7, sp, #0
 800022a:	4603      	mov	r3, r0
 800022c:	71fb      	strb	r3, [r7, #7]
 800022e:	79fb      	ldrb	r3, [r7, #7]
 8000230:	2b00      	cmp	r3, #0
 8000232:	d002      	beq.n	800023a <SWITCH_USER_LEVEL+0x16>
 8000234:	2b01      	cmp	r3, #1
 8000236:	d007      	beq.n	8000248 <SWITCH_USER_LEVEL+0x24>
 8000238:	e00d      	b.n	8000256 <SWITCH_USER_LEVEL+0x32>
 800023a:	f3ef 8314 	mrs	r3, CONTROL
 800023e:	ea4f 0353 	mov.w	r3, r3, lsr #1
 8000242:	ea4f 0343 	mov.w	r3, r3, lsl #1
 8000246:	e006      	b.n	8000256 <SWITCH_USER_LEVEL+0x32>
 8000248:	f3ef 8314 	mrs	r3, CONTROL
 800024c:	f043 0301 	orr.w	r3, r3, #1
 8000250:	f383 8814 	msr	CONTROL, r3
 8000254:	bf00      	nop
 8000256:	bf00      	nop
 8000258:	370c      	adds	r7, #12
 800025a:	46bd      	mov	sp, r7
 800025c:	bc80      	pop	{r7}
 800025e:	4770      	bx	lr

08000260 <main>:
 8000260:	b580      	push	{r7, lr}
 8000262:	af00      	add	r7, sp, #0
 8000264:	f7ff ff84 	bl	8000170 <Clock_init>
 8000268:	f7ff ff96 	bl	8000198 <GPIO_init>
 800026c:	f7ff ffbc 	bl	80001e8 <EXTI_init>
 8000270:	2000      	movs	r0, #0
 8000272:	f7ff ffd7 	bl	8000224 <SWITCH_USER_LEVEL>
 8000276:	2001      	movs	r0, #1
 8000278:	f7ff ffd4 	bl	8000224 <SWITCH_USER_LEVEL>
 800027c:	e7fe      	b.n	800027c <main+0x1c>
	...

08000280 <EXTI0_IRQHandler>:
 8000280:	b480      	push	{r7}
 8000282:	af00      	add	r7, sp, #0
 8000284:	4b07      	ldr	r3, [pc, #28]	; (80002a4 <EXTI0_IRQHandler+0x24>)
 8000286:	681b      	ldr	r3, [r3, #0]
 8000288:	4a06      	ldr	r2, [pc, #24]	; (80002a4 <EXTI0_IRQHandler+0x24>)
 800028a:	f483 5300 	eor.w	r3, r3, #8192	; 0x2000
 800028e:	6013      	str	r3, [r2, #0]
 8000290:	4b05      	ldr	r3, [pc, #20]	; (80002a8 <EXTI0_IRQHandler+0x28>)
 8000292:	681b      	ldr	r3, [r3, #0]
 8000294:	4a04      	ldr	r2, [pc, #16]	; (80002a8 <EXTI0_IRQHandler+0x28>)
 8000296:	f043 0301 	orr.w	r3, r3, #1
 800029a:	6013      	str	r3, [r2, #0]
 800029c:	bf00      	nop
 800029e:	46bd      	mov	sp, r7
 80002a0:	bc80      	pop	{r7}
 80002a2:	4770      	bx	lr
 80002a4:	4001080c 	andmi	r0, r1, ip, lsl #16
 80002a8:	40010414 	andmi	r0, r1, r4, lsl r4

080002ac <Reset_Handler>:
 80002ac:	480d      	ldr	r0, [pc, #52]	; (80002e4 <LoopForever+0x2>)
 80002ae:	4685      	mov	sp, r0
 80002b0:	f3af 8000 	nop.w
 80002b4:	480c      	ldr	r0, [pc, #48]	; (80002e8 <LoopForever+0x6>)
 80002b6:	490d      	ldr	r1, [pc, #52]	; (80002ec <LoopForever+0xa>)
 80002b8:	4a0d      	ldr	r2, [pc, #52]	; (80002f0 <LoopForever+0xe>)
 80002ba:	2300      	movs	r3, #0
 80002bc:	e002      	b.n	80002c4 <LoopCopyDataInit>

080002be <CopyDataInit>:
 80002be:	58d4      	ldr	r4, [r2, r3]
 80002c0:	50c4      	str	r4, [r0, r3]
 80002c2:	3304      	adds	r3, #4

080002c4 <LoopCopyDataInit>:
 80002c4:	18c4      	adds	r4, r0, r3
 80002c6:	428c      	cmp	r4, r1
 80002c8:	d3f9      	bcc.n	80002be <CopyDataInit>
 80002ca:	4a0a      	ldr	r2, [pc, #40]	; (80002f4 <LoopForever+0x12>)
 80002cc:	4c0a      	ldr	r4, [pc, #40]	; (80002f8 <LoopForever+0x16>)
 80002ce:	2300      	movs	r3, #0
 80002d0:	e001      	b.n	80002d6 <LoopFillZerobss>

080002d2 <FillZerobss>:
 80002d2:	6013      	str	r3, [r2, #0]
 80002d4:	3204      	adds	r2, #4

080002d6 <LoopFillZerobss>:
 80002d6:	42a2      	cmp	r2, r4
 80002d8:	d3fb      	bcc.n	80002d2 <FillZerobss>
 80002da:	f000 f811 	bl	8000300 <__libc_init_array>
 80002de:	f7ff ffbf 	bl	8000260 <main>

080002e2 <LoopForever>:
 80002e2:	e7fe      	b.n	80002e2 <LoopForever>
 80002e4:	20002800 	andcs	r2, r0, r0, lsl #16
 80002e8:	20000000 	andcs	r0, r0, r0
 80002ec:	20000000 	andcs	r0, r0, r0
 80002f0:	08000368 	stmdaeq	r0, {r3, r5, r6, r8, r9}
 80002f4:	20000000 	andcs	r0, r0, r0
 80002f8:	2000001c 	andcs	r0, r0, ip, lsl r0

080002fc <ADC1_2_IRQHandler>:
 80002fc:	e7fe      	b.n	80002fc <ADC1_2_IRQHandler>
	...

08000300 <__libc_init_array>:
 8000300:	b570      	push	{r4, r5, r6, lr}
 8000302:	2500      	movs	r5, #0
 8000304:	4e0c      	ldr	r6, [pc, #48]	; (8000338 <__libc_init_array+0x38>)
 8000306:	4c0d      	ldr	r4, [pc, #52]	; (800033c <__libc_init_array+0x3c>)
 8000308:	1ba4      	subs	r4, r4, r6
 800030a:	10a4      	asrs	r4, r4, #2
 800030c:	42a5      	cmp	r5, r4
 800030e:	d109      	bne.n	8000324 <__libc_init_array+0x24>
 8000310:	f000 f81a 	bl	8000348 <_init>
 8000314:	2500      	movs	r5, #0
 8000316:	4e0a      	ldr	r6, [pc, #40]	; (8000340 <__libc_init_array+0x40>)
 8000318:	4c0a      	ldr	r4, [pc, #40]	; (8000344 <__libc_init_array+0x44>)
 800031a:	1ba4      	subs	r4, r4, r6
 800031c:	10a4      	asrs	r4, r4, #2
 800031e:	42a5      	cmp	r5, r4
 8000320:	d105      	bne.n	800032e <__libc_init_array+0x2e>
 8000322:	bd70      	pop	{r4, r5, r6, pc}
 8000324:	f856 3025 	ldr.w	r3, [r6, r5, lsl #2]
 8000328:	4798      	blx	r3
 800032a:	3501      	adds	r5, #1
 800032c:	e7ee      	b.n	800030c <__libc_init_array+0xc>
 800032e:	f856 3025 	ldr.w	r3, [r6, r5, lsl #2]
 8000332:	4798      	blx	r3
 8000334:	3501      	adds	r5, #1
 8000336:	e7f2      	b.n	800031e <__libc_init_array+0x1e>
 8000338:	08000360 	stmdaeq	r0, {r5, r6, r8, r9}
 800033c:	08000360 	stmdaeq	r0, {r5, r6, r8, r9}
 8000340:	08000360 	stmdaeq	r0, {r5, r6, r8, r9}
 8000344:	08000364 	stmdaeq	r0, {r2, r5, r6, r8, r9}

08000348 <_init>:
 8000348:	b5f8      	push	{r3, r4, r5, r6, r7, lr}
 800034a:	bf00      	nop
 800034c:	bcf8      	pop	{r3, r4, r5, r6, r7}
 800034e:	bc08      	pop	{r3}
 8000350:	469e      	mov	lr, r3
 8000352:	4770      	bx	lr

08000354 <_fini>:
 8000354:	b5f8      	push	{r3, r4, r5, r6, r7, lr}
 8000356:	bf00      	nop
 8000358:	bcf8      	pop	{r3, r4, r5, r6, r7}
 800035a:	bc08      	pop	{r3}
 800035c:	469e      	mov	lr, r3
 800035e:	4770      	bx	lr
