
Enable_Ext_Interrupt_Stm32F103XX_lab2.axf:     file format elf32-littlearm


Disassembly of section .isr_vector:

08000000 <g_pfnVectors>:
 8000000:	20002800 	andcs	r2, r0, r0, lsl #16
 8000004:	0800028d 	stmdaeq	r0, {r0, r2, r3, r7, r9}
 8000008:	080002dd 	stmdaeq	r0, {r0, r2, r3, r4, r6, r7, r9}
 800000c:	080002dd 	stmdaeq	r0, {r0, r2, r3, r4, r6, r7, r9}
 8000010:	080002dd 	stmdaeq	r0, {r0, r2, r3, r4, r6, r7, r9}
 8000014:	080002dd 	stmdaeq	r0, {r0, r2, r3, r4, r6, r7, r9}
 8000018:	080002dd 	stmdaeq	r0, {r0, r2, r3, r4, r6, r7, r9}
	...
 800002c:	080002dd 	stmdaeq	r0, {r0, r2, r3, r4, r6, r7, r9}
 8000030:	080002dd 	stmdaeq	r0, {r0, r2, r3, r4, r6, r7, r9}
 8000034:	00000000 	andeq	r0, r0, r0
 8000038:	080002dd 	stmdaeq	r0, {r0, r2, r3, r4, r6, r7, r9}
 800003c:	080002dd 	stmdaeq	r0, {r0, r2, r3, r4, r6, r7, r9}
 8000040:	080002dd 	stmdaeq	r0, {r0, r2, r3, r4, r6, r7, r9}
 8000044:	080002dd 	stmdaeq	r0, {r0, r2, r3, r4, r6, r7, r9}
 8000048:	080002dd 	stmdaeq	r0, {r0, r2, r3, r4, r6, r7, r9}
 800004c:	080002dd 	stmdaeq	r0, {r0, r2, r3, r4, r6, r7, r9}
 8000050:	080002dd 	stmdaeq	r0, {r0, r2, r3, r4, r6, r7, r9}
 8000054:	080002dd 	stmdaeq	r0, {r0, r2, r3, r4, r6, r7, r9}
 8000058:	0800024d 	stmdaeq	r0, {r0, r2, r3, r6, r9}
 800005c:	080002dd 	stmdaeq	r0, {r0, r2, r3, r4, r6, r7, r9}
 8000060:	080002dd 	stmdaeq	r0, {r0, r2, r3, r4, r6, r7, r9}
 8000064:	080002dd 	stmdaeq	r0, {r0, r2, r3, r4, r6, r7, r9}
 8000068:	080002dd 	stmdaeq	r0, {r0, r2, r3, r4, r6, r7, r9}
 800006c:	080002dd 	stmdaeq	r0, {r0, r2, r3, r4, r6, r7, r9}
 8000070:	080002dd 	stmdaeq	r0, {r0, r2, r3, r4, r6, r7, r9}
 8000074:	080002dd 	stmdaeq	r0, {r0, r2, r3, r4, r6, r7, r9}
 8000078:	080002dd 	stmdaeq	r0, {r0, r2, r3, r4, r6, r7, r9}
 800007c:	080002dd 	stmdaeq	r0, {r0, r2, r3, r4, r6, r7, r9}
 8000080:	080002dd 	stmdaeq	r0, {r0, r2, r3, r4, r6, r7, r9}
 8000084:	080002dd 	stmdaeq	r0, {r0, r2, r3, r4, r6, r7, r9}
 8000088:	080002dd 	stmdaeq	r0, {r0, r2, r3, r4, r6, r7, r9}
 800008c:	080002dd 	stmdaeq	r0, {r0, r2, r3, r4, r6, r7, r9}
 8000090:	080002dd 	stmdaeq	r0, {r0, r2, r3, r4, r6, r7, r9}
 8000094:	080002dd 	stmdaeq	r0, {r0, r2, r3, r4, r6, r7, r9}
 8000098:	080002dd 	stmdaeq	r0, {r0, r2, r3, r4, r6, r7, r9}
 800009c:	080002dd 	stmdaeq	r0, {r0, r2, r3, r4, r6, r7, r9}
 80000a0:	080002dd 	stmdaeq	r0, {r0, r2, r3, r4, r6, r7, r9}
 80000a4:	080002dd 	stmdaeq	r0, {r0, r2, r3, r4, r6, r7, r9}
 80000a8:	080002dd 	stmdaeq	r0, {r0, r2, r3, r4, r6, r7, r9}
 80000ac:	080002dd 	stmdaeq	r0, {r0, r2, r3, r4, r6, r7, r9}
 80000b0:	080002dd 	stmdaeq	r0, {r0, r2, r3, r4, r6, r7, r9}
 80000b4:	080002dd 	stmdaeq	r0, {r0, r2, r3, r4, r6, r7, r9}
 80000b8:	080002dd 	stmdaeq	r0, {r0, r2, r3, r4, r6, r7, r9}
 80000bc:	080002dd 	stmdaeq	r0, {r0, r2, r3, r4, r6, r7, r9}
 80000c0:	080002dd 	stmdaeq	r0, {r0, r2, r3, r4, r6, r7, r9}
 80000c4:	080002dd 	stmdaeq	r0, {r0, r2, r3, r4, r6, r7, r9}
 80000c8:	080002dd 	stmdaeq	r0, {r0, r2, r3, r4, r6, r7, r9}
 80000cc:	080002dd 	stmdaeq	r0, {r0, r2, r3, r4, r6, r7, r9}
 80000d0:	080002dd 	stmdaeq	r0, {r0, r2, r3, r4, r6, r7, r9}
 80000d4:	080002dd 	stmdaeq	r0, {r0, r2, r3, r4, r6, r7, r9}
 80000d8:	080002dd 	stmdaeq	r0, {r0, r2, r3, r4, r6, r7, r9}
 80000dc:	080002dd 	stmdaeq	r0, {r0, r2, r3, r4, r6, r7, r9}
 80000e0:	080002dd 	stmdaeq	r0, {r0, r2, r3, r4, r6, r7, r9}
 80000e4:	080002dd 	stmdaeq	r0, {r0, r2, r3, r4, r6, r7, r9}
 80000e8:	00000000 	andeq	r0, r0, r0
 80000ec:	080002dd 	stmdaeq	r0, {r0, r2, r3, r4, r6, r7, r9}
 80000f0:	080002dd 	stmdaeq	r0, {r0, r2, r3, r4, r6, r7, r9}
 80000f4:	080002dd 	stmdaeq	r0, {r0, r2, r3, r4, r6, r7, r9}
 80000f8:	080002dd 	stmdaeq	r0, {r0, r2, r3, r4, r6, r7, r9}
 80000fc:	080002dd 	stmdaeq	r0, {r0, r2, r3, r4, r6, r7, r9}
 8000100:	080002dd 	stmdaeq	r0, {r0, r2, r3, r4, r6, r7, r9}
 8000104:	080002dd 	stmdaeq	r0, {r0, r2, r3, r4, r6, r7, r9}
 8000108:	080002dd 	stmdaeq	r0, {r0, r2, r3, r4, r6, r7, r9}
 800010c:	080002dd 	stmdaeq	r0, {r0, r2, r3, r4, r6, r7, r9}
 8000110:	080002dd 	stmdaeq	r0, {r0, r2, r3, r4, r6, r7, r9}
 8000114:	080002dd 	stmdaeq	r0, {r0, r2, r3, r4, r6, r7, r9}
 8000118:	080002dd 	stmdaeq	r0, {r0, r2, r3, r4, r6, r7, r9}
 800011c:	080002dd 	stmdaeq	r0, {r0, r2, r3, r4, r6, r7, r9}
 8000120:	080002dd 	stmdaeq	r0, {r0, r2, r3, r4, r6, r7, r9}
 8000124:	080002dd 	stmdaeq	r0, {r0, r2, r3, r4, r6, r7, r9}
 8000128:	080002dd 	stmdaeq	r0, {r0, r2, r3, r4, r6, r7, r9}
 800012c:	080002dd 	stmdaeq	r0, {r0, r2, r3, r4, r6, r7, r9}

Disassembly of section .text:

08000130 <__do_global_dtors_aux>:
 8000130:	b510      	push	{r4, lr}
 8000132:	4c05      	ldr	r4, [pc, #20]	; (8000148 <__do_global_dtors_aux+0x18>)
 8000134:	7823      	ldrb	r3, [r4, #0]
 8000136:	b933      	cbnz	r3, 8000146 <__do_global_dtors_aux+0x16>
 8000138:	4b04      	ldr	r3, [pc, #16]	; (800014c <__do_global_dtors_aux+0x1c>)
 800013a:	b113      	cbz	r3, 8000142 <__do_global_dtors_aux+0x12>
 800013c:	4804      	ldr	r0, [pc, #16]	; (8000150 <__do_global_dtors_aux+0x20>)
 800013e:	f3af 8000 	nop.w
 8000142:	2301      	movs	r3, #1
 8000144:	7023      	strb	r3, [r4, #0]
 8000146:	bd10      	pop	{r4, pc}
 8000148:	20000000 	andcs	r0, r0, r0
 800014c:	00000000 	andeq	r0, r0, r0
 8000150:	08000328 	stmdaeq	r0, {r3, r5, r8, r9}

08000154 <frame_dummy>:
 8000154:	b508      	push	{r3, lr}
 8000156:	4b03      	ldr	r3, [pc, #12]	; (8000164 <frame_dummy+0x10>)
 8000158:	b11b      	cbz	r3, 8000162 <frame_dummy+0xe>
 800015a:	4903      	ldr	r1, [pc, #12]	; (8000168 <frame_dummy+0x14>)
 800015c:	4803      	ldr	r0, [pc, #12]	; (800016c <frame_dummy+0x18>)
 800015e:	f3af 8000 	nop.w
 8000162:	bd08      	pop	{r3, pc}
 8000164:	00000000 	andeq	r0, r0, r0
 8000168:	20000004 	andcs	r0, r0, r4
 800016c:	08000328 	stmdaeq	r0, {r3, r5, r8, r9}

08000170 <Clock_init>:
 8000170:	b480      	push	{r7}
 8000172:	af00      	add	r7, sp, #0
 8000174:	4b07      	ldr	r3, [pc, #28]	; (8000194 <Clock_init+0x24>)
 8000176:	681b      	ldr	r3, [r3, #0]
 8000178:	4a06      	ldr	r2, [pc, #24]	; (8000194 <Clock_init+0x24>)
 800017a:	f043 0304 	orr.w	r3, r3, #4
 800017e:	6013      	str	r3, [r2, #0]
 8000180:	4b04      	ldr	r3, [pc, #16]	; (8000194 <Clock_init+0x24>)
 8000182:	681b      	ldr	r3, [r3, #0]
 8000184:	4a03      	ldr	r2, [pc, #12]	; (8000194 <Clock_init+0x24>)
 8000186:	f043 0301 	orr.w	r3, r3, #1
 800018a:	6013      	str	r3, [r2, #0]
 800018c:	bf00      	nop
 800018e:	46bd      	mov	sp, r7
 8000190:	bc80      	pop	{r7}
 8000192:	4770      	bx	lr
 8000194:	40021018 	andmi	r1, r2, r8, lsl r0

08000198 <GPIO_init>:
 8000198:	b480      	push	{r7}
 800019a:	af00      	add	r7, sp, #0
 800019c:	4b0f      	ldr	r3, [pc, #60]	; (80001dc <GPIO_init+0x44>)
 800019e:	681b      	ldr	r3, [r3, #0]
 80001a0:	4a0e      	ldr	r2, [pc, #56]	; (80001dc <GPIO_init+0x44>)
 80001a2:	f423 0370 	bic.w	r3, r3, #15728640	; 0xf00000
 80001a6:	6013      	str	r3, [r2, #0]
 80001a8:	4b0c      	ldr	r3, [pc, #48]	; (80001dc <GPIO_init+0x44>)
 80001aa:	681b      	ldr	r3, [r3, #0]
 80001ac:	4a0b      	ldr	r2, [pc, #44]	; (80001dc <GPIO_init+0x44>)
 80001ae:	f443 1300 	orr.w	r3, r3, #2097152	; 0x200000
 80001b2:	6013      	str	r3, [r2, #0]
 80001b4:	4b0a      	ldr	r3, [pc, #40]	; (80001e0 <GPIO_init+0x48>)
 80001b6:	681b      	ldr	r3, [r3, #0]
 80001b8:	4a09      	ldr	r2, [pc, #36]	; (80001e0 <GPIO_init+0x48>)
 80001ba:	f023 030f 	bic.w	r3, r3, #15
 80001be:	6013      	str	r3, [r2, #0]
 80001c0:	4b07      	ldr	r3, [pc, #28]	; (80001e0 <GPIO_init+0x48>)
 80001c2:	681b      	ldr	r3, [r3, #0]
 80001c4:	4a06      	ldr	r2, [pc, #24]	; (80001e0 <GPIO_init+0x48>)
 80001c6:	f043 0308 	orr.w	r3, r3, #8
 80001ca:	6013      	str	r3, [r2, #0]
 80001cc:	4b05      	ldr	r3, [pc, #20]	; (80001e4 <GPIO_init+0x4c>)
 80001ce:	2200      	movs	r2, #0
 80001d0:	601a      	str	r2, [r3, #0]
 80001d2:	bf00      	nop
 80001d4:	46bd      	mov	sp, r7
 80001d6:	bc80      	pop	{r7}
 80001d8:	4770      	bx	lr
 80001da:	bf00      	nop
 80001dc:	40010804 	andmi	r0, r1, r4, lsl #16
 80001e0:	40010800 	andmi	r0, r1, r0, lsl #16
 80001e4:	04001008 	streq	r1, [r0], #-8

080001e8 <EXTI_init>:
 80001e8:	b480      	push	{r7}
 80001ea:	af00      	add	r7, sp, #0
 80001ec:	4b0a      	ldr	r3, [pc, #40]	; (8000218 <EXTI_init+0x30>)
 80001ee:	681b      	ldr	r3, [r3, #0]
 80001f0:	4a09      	ldr	r2, [pc, #36]	; (8000218 <EXTI_init+0x30>)
 80001f2:	f043 0301 	orr.w	r3, r3, #1
 80001f6:	6013      	str	r3, [r2, #0]
 80001f8:	4b08      	ldr	r3, [pc, #32]	; (800021c <EXTI_init+0x34>)
 80001fa:	681b      	ldr	r3, [r3, #0]
 80001fc:	4a07      	ldr	r2, [pc, #28]	; (800021c <EXTI_init+0x34>)
 80001fe:	f043 0301 	orr.w	r3, r3, #1
 8000202:	6013      	str	r3, [r2, #0]
 8000204:	4b06      	ldr	r3, [pc, #24]	; (8000220 <EXTI_init+0x38>)
 8000206:	681b      	ldr	r3, [r3, #0]
 8000208:	4a05      	ldr	r2, [pc, #20]	; (8000220 <EXTI_init+0x38>)
 800020a:	f043 0340 	orr.w	r3, r3, #64	; 0x40
 800020e:	6013      	str	r3, [r2, #0]
 8000210:	bf00      	nop
 8000212:	46bd      	mov	sp, r7
 8000214:	bc80      	pop	{r7}
 8000216:	4770      	bx	lr
 8000218:	40010400 	andmi	r0, r1, r0, lsl #8
 800021c:	40010408 	andmi	r0, r1, r8, lsl #8
 8000220:	e000e100 	and	lr, r0, r0, lsl #2

08000224 <main>:
 8000224:	b580      	push	{r7, lr}
 8000226:	af00      	add	r7, sp, #0
 8000228:	f7ff ffa2 	bl	8000170 <Clock_init>
 800022c:	f7ff ffb4 	bl	8000198 <GPIO_init>
 8000230:	f7ff ffda 	bl	80001e8 <EXTI_init>
 8000234:	bf00      	nop
 8000236:	bf00      	nop
 8000238:	f3ef 8314 	mrs	r3, CONTROL
 800023c:	4a02      	ldr	r2, [pc, #8]	; (8000248 <main+0x24>)
 800023e:	6013      	str	r3, [r2, #0]
 8000240:	bf00      	nop
 8000242:	bf00      	nop
 8000244:	e7fe      	b.n	8000244 <main+0x20>
 8000246:	bf00      	nop
 8000248:	2000001c 	andcs	r0, r0, ip, lsl r0

0800024c <EXTI0_IRQHandler>:
 800024c:	b480      	push	{r7}
 800024e:	af00      	add	r7, sp, #0
 8000250:	bf00      	nop
 8000252:	bf00      	nop
 8000254:	f3ef 8305 	mrs	r3, IPSR
 8000258:	4a09      	ldr	r2, [pc, #36]	; (8000280 <EXTI0_IRQHandler+0x34>)
 800025a:	6013      	str	r3, [r2, #0]
 800025c:	bf00      	nop
 800025e:	bf00      	nop
 8000260:	4b08      	ldr	r3, [pc, #32]	; (8000284 <EXTI0_IRQHandler+0x38>)
 8000262:	681b      	ldr	r3, [r3, #0]
 8000264:	4a07      	ldr	r2, [pc, #28]	; (8000284 <EXTI0_IRQHandler+0x38>)
 8000266:	f483 5300 	eor.w	r3, r3, #8192	; 0x2000
 800026a:	6013      	str	r3, [r2, #0]
 800026c:	4b06      	ldr	r3, [pc, #24]	; (8000288 <EXTI0_IRQHandler+0x3c>)
 800026e:	681b      	ldr	r3, [r3, #0]
 8000270:	4a05      	ldr	r2, [pc, #20]	; (8000288 <EXTI0_IRQHandler+0x3c>)
 8000272:	f043 0301 	orr.w	r3, r3, #1
 8000276:	6013      	str	r3, [r2, #0]
 8000278:	bf00      	nop
 800027a:	46bd      	mov	sp, r7
 800027c:	bc80      	pop	{r7}
 800027e:	4770      	bx	lr
 8000280:	20000020 	andcs	r0, r0, r0, lsr #32
 8000284:	4001080c 	andmi	r0, r1, ip, lsl #16
 8000288:	40010414 	andmi	r0, r1, r4, lsl r4

0800028c <Reset_Handler>:
 800028c:	480d      	ldr	r0, [pc, #52]	; (80002c4 <LoopForever+0x2>)
 800028e:	4685      	mov	sp, r0
 8000290:	f3af 8000 	nop.w
 8000294:	480c      	ldr	r0, [pc, #48]	; (80002c8 <LoopForever+0x6>)
 8000296:	490d      	ldr	r1, [pc, #52]	; (80002cc <LoopForever+0xa>)
 8000298:	4a0d      	ldr	r2, [pc, #52]	; (80002d0 <LoopForever+0xe>)
 800029a:	2300      	movs	r3, #0
 800029c:	e002      	b.n	80002a4 <LoopCopyDataInit>

0800029e <CopyDataInit>:
 800029e:	58d4      	ldr	r4, [r2, r3]
 80002a0:	50c4      	str	r4, [r0, r3]
 80002a2:	3304      	adds	r3, #4

080002a4 <LoopCopyDataInit>:
 80002a4:	18c4      	adds	r4, r0, r3
 80002a6:	428c      	cmp	r4, r1
 80002a8:	d3f9      	bcc.n	800029e <CopyDataInit>
 80002aa:	4a0a      	ldr	r2, [pc, #40]	; (80002d4 <LoopForever+0x12>)
 80002ac:	4c0a      	ldr	r4, [pc, #40]	; (80002d8 <LoopForever+0x16>)
 80002ae:	2300      	movs	r3, #0
 80002b0:	e001      	b.n	80002b6 <LoopFillZerobss>

080002b2 <FillZerobss>:
 80002b2:	6013      	str	r3, [r2, #0]
 80002b4:	3204      	adds	r2, #4

080002b6 <LoopFillZerobss>:
 80002b6:	42a2      	cmp	r2, r4
 80002b8:	d3fb      	bcc.n	80002b2 <FillZerobss>
 80002ba:	f000 f811 	bl	80002e0 <__libc_init_array>
 80002be:	f7ff ffb1 	bl	8000224 <main>

080002c2 <LoopForever>:
 80002c2:	e7fe      	b.n	80002c2 <LoopForever>
 80002c4:	20002800 	andcs	r2, r0, r0, lsl #16
 80002c8:	20000000 	andcs	r0, r0, r0
 80002cc:	20000000 	andcs	r0, r0, r0
 80002d0:	08000348 	stmdaeq	r0, {r3, r6, r8, r9}
 80002d4:	20000000 	andcs	r0, r0, r0
 80002d8:	20000024 	andcs	r0, r0, r4, lsr #32

080002dc <ADC1_2_IRQHandler>:
 80002dc:	e7fe      	b.n	80002dc <ADC1_2_IRQHandler>
	...

080002e0 <__libc_init_array>:
 80002e0:	b570      	push	{r4, r5, r6, lr}
 80002e2:	2500      	movs	r5, #0
 80002e4:	4e0c      	ldr	r6, [pc, #48]	; (8000318 <__libc_init_array+0x38>)
 80002e6:	4c0d      	ldr	r4, [pc, #52]	; (800031c <__libc_init_array+0x3c>)
 80002e8:	1ba4      	subs	r4, r4, r6
 80002ea:	10a4      	asrs	r4, r4, #2
 80002ec:	42a5      	cmp	r5, r4
 80002ee:	d109      	bne.n	8000304 <__libc_init_array+0x24>
 80002f0:	f000 f81a 	bl	8000328 <_init>
 80002f4:	2500      	movs	r5, #0
 80002f6:	4e0a      	ldr	r6, [pc, #40]	; (8000320 <__libc_init_array+0x40>)
 80002f8:	4c0a      	ldr	r4, [pc, #40]	; (8000324 <__libc_init_array+0x44>)
 80002fa:	1ba4      	subs	r4, r4, r6
 80002fc:	10a4      	asrs	r4, r4, #2
 80002fe:	42a5      	cmp	r5, r4
 8000300:	d105      	bne.n	800030e <__libc_init_array+0x2e>
 8000302:	bd70      	pop	{r4, r5, r6, pc}
 8000304:	f856 3025 	ldr.w	r3, [r6, r5, lsl #2]
 8000308:	4798      	blx	r3
 800030a:	3501      	adds	r5, #1
 800030c:	e7ee      	b.n	80002ec <__libc_init_array+0xc>
 800030e:	f856 3025 	ldr.w	r3, [r6, r5, lsl #2]
 8000312:	4798      	blx	r3
 8000314:	3501      	adds	r5, #1
 8000316:	e7f2      	b.n	80002fe <__libc_init_array+0x1e>
 8000318:	08000340 	stmdaeq	r0, {r6, r8, r9}
 800031c:	08000340 	stmdaeq	r0, {r6, r8, r9}
 8000320:	08000340 	stmdaeq	r0, {r6, r8, r9}
 8000324:	08000344 	stmdaeq	r0, {r2, r6, r8, r9}

08000328 <_init>:
 8000328:	b5f8      	push	{r3, r4, r5, r6, r7, lr}
 800032a:	bf00      	nop
 800032c:	bcf8      	pop	{r3, r4, r5, r6, r7}
 800032e:	bc08      	pop	{r3}
 8000330:	469e      	mov	lr, r3
 8000332:	4770      	bx	lr

08000334 <_fini>:
 8000334:	b5f8      	push	{r3, r4, r5, r6, r7, lr}
 8000336:	bf00      	nop
 8000338:	bcf8      	pop	{r3, r4, r5, r6, r7}
 800033a:	bc08      	pop	{r3}
 800033c:	469e      	mov	lr, r3
 800033e:	4770      	bx	lr
